(lp0
(lp1
((I4
I4
tp2
(I6
I6
tp3
(I1
I1
tp4
(I1
I1
tp5
tp6
aF-0.01
aa(lp7
((I4
I4
tp8
(I8
I6
tp9
(I0
I1
tp10
(I1
I1
tp11
tp12
aF-0.01
aa(lp13
((I3
I4
tp14
(I7
I6
tp15
(I0
I1
tp16
(I1
I1
tp17
tp18
aF-0.01
aa(lp19
((I2
I4
tp20
(I6
I6
tp21
(I0
I1
tp22
(I1
I1
tp23
tp24
aF-0.01
aa(lp25
((I2
I4
tp26
(I6
I5
tp27
(I0
I1
tp28
(I1
I1
tp29
tp30
aF-0.01
aa(lp31
((I2
I3
tp32
(I6
I4
tp33
(I0
I1
tp34
(I1
I1
tp35
tp36
aF-0.01
aa(lp37
((I1
I3
tp38
(I5
I4
tp39
(I0
I1
tp40
(I1
I1
tp41
tp42
aF-0.01
aa(lp43
((I1
I3
tp44
(I5
I3
tp45
(I0
I1
tp46
(I1
I1
tp47
tp48
aI-1
aa(lp49
((I4
I4
tp50
(I8
I6
tp51
(I0
I2
tp52
(I1
I1
tp53
tp54
aF-0.01
aa(lp55
((I4
I4
tp56
(I7
I6
tp57
(I0
I2
tp58
(I1
I1
tp59
tp60
aF-0.01
aa(lp61
((I4
I4
tp62
(I6
I6
tp63
(I0
I2
tp64
(I1
I1
tp65
tp66
aF-0.01
aa(lp67
((I4
I4
tp68
(I6
I5
tp69
(I0
I2
tp70
(I1
I1
tp71
tp72
aF-0.01
aa(lp73
((I4
I4
tp74
(I6
I5
tp75
(I0
I3
tp76
(I1
I1
tp77
tp78
aF-0.01
aa(lp79
((I4
I4
tp80
(I6
I7
tp81
(I0
I2
tp82
(I1
I1
tp83
tp84
aF-0.01
aa(lp85
((I4
I3
tp86
(I6
I5
tp87
(I0
I2
tp88
(I1
I1
tp89
tp90
aF-0.01
aa(lp91
((I4
I2
tp92
(I6
I4
tp93
(I0
I2
tp94
(I1
I1
tp95
tp96
aF-0.01
aa(lp97
((I4
I1
tp98
(I6
I3
tp99
(I0
I2
tp100
(I1
I1
tp101
tp102
aF-0.01
aa(lp103
((I4
I1
tp104
(I5
I3
tp105
(I0
I2
tp106
(I1
I1
tp107
tp108
aI1
aa(lp109
((I4
I1
tp110
(I5
I3
tp111
(I0
I3
tp112
(I1
I1
tp113
tp114
aF-0.01
aa(lp115
((I4
I1
tp116
(I5
I5
tp117
(I0
I2
tp118
(I1
I1
tp119
tp120
aF-0.01
aa(lp121
((I4
I1
tp122
(I5
I4
tp123
(I0
I2
tp124
(I1
I1
tp125
tp126
aF-0.01
aa(lp127
((I4
I4
tp128
(I8
I5
tp129
(I0
I1
tp130
(I1
I1
tp131
tp132
aF-0.01
aa(lp133
((I4
I4
tp134
(I8
I5
tp135
(I0
I2
tp136
(I1
I1
tp137
tp138
aF-0.01
aa(lp139
((I4
I4
tp140
(I8
I4
tp141
(I0
I2
tp142
(I1
I1
tp143
tp144
aF-0.01
aa(lp145
((I3
I4
tp146
(I7
I4
tp147
(I0
I2
tp148
(I1
I1
tp149
tp150
aF-0.01
aa(lp151
((I3
I4
tp152
(I7
I4
tp153
(I1
I2
tp154
(I1
I1
tp155
tp156
aF-0.01
aa(lp157
((I3
I4
tp158
(I9
I4
tp159
(I0
I2
tp160
(I1
I1
tp161
tp162
aF-0.01
aa(lp163
((I3
I3
tp164
(I9
I3
tp165
(I0
I2
tp166
(I1
I1
tp167
tp168
aF-0.01
aa(lp169
((I2
I3
tp170
(I8
I3
tp171
(I0
I2
tp172
(I1
I1
tp173
tp174
aF-0.01
aa(lp175
((I1
I3
tp176
(I7
I3
tp177
(I0
I2
tp178
(I1
I1
tp179
tp180
aI-1
aa(lp181
((I4
I4
tp182
(I6
I5
tp183
(I1
I1
tp184
(I1
I1
tp185
tp186
aF-0.01
aa(lp187
((I4
I4
tp188
(I8
I4
tp189
(I0
I1
tp190
(I1
I1
tp191
tp192
aF-0.01
aa(lp193
((I4
I3
tp194
(I8
I3
tp195
(I0
I1
tp196
(I1
I1
tp197
tp198
aF-0.01
aa(lp199
((I4
I3
tp200
(I7
I3
tp201
(I0
I1
tp202
(I1
I1
tp203
tp204
aF-0.01
aa(lp205
((I4
I3
tp206
(I6
I3
tp207
(I0
I1
tp208
(I1
I1
tp209
tp210
aF-0.01
aa(lp211
((I4
I3
tp212
(I6
I3
tp213
(I1
I1
tp214
(I1
I1
tp215
tp216
aF-0.01
aa(lp217
((I3
I3
tp218
(I7
I3
tp219
(I0
I1
tp220
(I1
I1
tp221
tp222
aF-0.01
aa(lp223
((I3
I2
tp224
(I7
I2
tp225
(I0
I1
tp226
(I1
I1
tp227
tp228
aF-0.01
aa(lp229
((I2
I2
tp230
(I6
I2
tp231
(I0
I1
tp232
(I1
I1
tp233
tp234
aF-0.01
aa(lp235
((I2
I1
tp236
(I6
I1
tp237
(I0
I1
tp238
(I1
I1
tp239
tp240
aF-0.01
aa(lp241
((I2
I1
tp242
(I5
I1
tp243
(I0
I1
tp244
(I1
I1
tp245
tp246
aI-1
aa(lp247
((I4
I4
tp248
(I7
I6
tp249
(I0
I1
tp250
(I1
I1
tp251
tp252
aF-0.01
aa(lp253
((I4
I4
tp254
(I6
I6
tp255
(I0
I1
tp256
(I1
I1
tp257
tp258
aF-0.01
aa(lp259
((I4
I3
tp260
(I6
I5
tp261
(I0
I1
tp262
(I1
I1
tp263
tp264
aF-0.01
aa(lp265
((I4
I2
tp266
(I6
I4
tp267
(I0
I1
tp268
(I1
I1
tp269
tp270
aF-0.01
aa(lp271
((I4
I1
tp272
(I6
I3
tp273
(I0
I1
tp274
(I1
I1
tp275
tp276
aF499.0
aa(lp277
((I4
I3
tp278
(I8
I5
tp279
(I0
I1
tp280
(I1
I1
tp281
tp282
aF-0.01
aa(lp283
((I4
I3
tp284
(I8
I4
tp285
(I0
I1
tp286
(I1
I1
tp287
tp288
aF-0.01
aa(lp289
((I4
I3
tp290
(I7
I4
tp291
(I0
I1
tp292
(I1
I1
tp293
tp294
aF-0.01
aa(lp295
((I4
I3
tp296
(I6
I4
tp297
(I0
I1
tp298
(I1
I1
tp299
tp300
aF-0.01
aa(lp301
((I4
I3
tp302
(I5
I3
tp303
(I0
I1
tp304
(I1
I1
tp305
tp306
aF-0.01
aa(lp307
((I4
I2
tp308
(I5
I2
tp309
(I0
I1
tp310
(I1
I1
tp311
tp312
aF-0.01
aa(lp313
((I4
I1
tp314
(I5
I1
tp315
(I0
I1
tp316
(I1
I1
tp317
tp318
aF-0.01
aa(lp319
((I4
I1
tp320
(I4
I1
tp321
(I0
I1
tp322
(I1
I1
tp323
tp324
aF-0.01
aa(lp325
((I3
I1
tp326
(I3
I1
tp327
(I0
I1
tp328
(I1
I1
tp329
tp330
aI1
aa(lp331
((I4
I4
tp332
(I6
I5
tp333
(I0
I1
tp334
(I1
I1
tp335
tp336
aF-0.01
aa(lp337
((I4
I4
tp338
(I5
I5
tp339
(I0
I1
tp340
(I1
I1
tp341
tp342
aF-0.01
aa(lp343
((I4
I4
tp344
(I4
I5
tp345
(I0
I1
tp346
(I1
I1
tp347
tp348
aF-0.01
aa(lp349
((I3
I4
tp350
(I3
I5
tp351
(I0
I1
tp352
(I1
I1
tp353
tp354
aF-0.01
aa(lp355
((I2
I4
tp356
(I2
I5
tp357
(I0
I1
tp358
(I1
I1
tp359
tp360
aF-0.01
aa(lp361
((I2
I4
tp362
(I2
I4
tp363
(I0
I1
tp364
(I1
I1
tp365
tp366
aF-0.01
aa(lp367
((I2
I3
tp368
(I2
I3
tp369
(I0
I1
tp370
(I1
I1
tp371
tp372
aF-0.01
aa(lp373
((I1
I3
tp374
(I1
I3
tp375
(I0
I1
tp376
(I1
I1
tp377
tp378
aI-1
aa(lp379
((I4
I2
tp380
(I8
I2
tp381
(I0
I1
tp382
(I1
I1
tp383
tp384
aF-0.01
aa(lp385
((I4
I1
tp386
(I8
I1
tp387
(I0
I1
tp388
(I1
I1
tp389
tp390
aF-0.01
aa(lp391
((I4
I1
tp392
(I7
I1
tp393
(I0
I1
tp394
(I1
I1
tp395
tp396
aF810.0
aa(lp397
((I4
I4
tp398
(I7
I5
tp399
(I0
I1
tp400
(I1
I1
tp401
tp402
aF-0.01
aa(lp403
((I4
I2
tp404
(I5
I2
tp405
(I1
I1
tp406
(I1
I1
tp407
tp408
aF-0.01
aa(lp409
((I4
I2
tp410
(I7
I2
tp411
(I0
I1
tp412
(I1
I1
tp413
tp414
aF-0.01
aa(lp415
((I4
I2
tp416
(I7
I2
tp417
(I1
I1
tp418
(I1
I1
tp419
tp420
aF-0.01
aa(lp421
((I4
I1
tp422
(I7
I1
tp423
(I1
I1
tp424
(I1
I1
tp425
tp426
aF-0.01
aa(lp427
((I4
I1
tp428
(I9
I1
tp429
(I0
I1
tp430
(I1
I1
tp431
tp432
aF-0.01
aa(lp433
((I3
I1
tp434
(I6
I1
tp435
(I0
I1
tp436
(I1
I1
tp437
tp438
aF238.0
aa(lp439
((I4
I4
tp440
(I7
I5
tp441
(I0
I2
tp442
(I1
I1
tp443
tp444
aF-0.01
aa(lp445
((I4
I3
tp446
(I7
I4
tp447
(I0
I2
tp448
(I1
I1
tp449
tp450
aF-0.01
aa(lp451
((I4
I3
tp452
(I6
I4
tp453
(I0
I2
tp454
(I1
I1
tp455
tp456
aF-0.01
aa(lp457
((I4
I3
tp458
(I6
I3
tp459
(I0
I2
tp460
(I1
I1
tp461
tp462
aF-0.01
aa(lp463
((I4
I3
tp464
(I6
I3
tp465
(I1
I2
tp466
(I1
I1
tp467
tp468
aF-0.01
aa(lp469
((I4
I3
tp470
(I5
I3
tp471
(I1
I2
tp472
(I1
I1
tp473
tp474
aF-0.01
aa(lp475
((I4
I3
tp476
(I7
I3
tp477
(I0
I2
tp478
(I1
I1
tp479
tp480
aF-0.01
aa(lp481
((I4
I2
tp482
(I7
I2
tp483
(I0
I2
tp484
(I1
I1
tp485
tp486
aF-0.01
aa(lp487
((I4
I2
tp488
(I6
I2
tp489
(I0
I2
tp490
(I1
I1
tp491
tp492
aF-0.01
aa(lp493
((I4
I1
tp494
(I6
I1
tp495
(I0
I2
tp496
(I1
I1
tp497
tp498
aI1
aa(lp499
((I4
I4
tp500
(I8
I6
tp501
(I1
I1
tp502
(I1
I1
tp503
tp504
aF-0.01
aa(lp505
((I4
I3
tp506
(I8
I5
tp507
(I1
I1
tp508
(I1
I1
tp509
tp510
aF-0.01
aa(lp511
((I4
I3
tp512
(I10
I5
tp513
(I0
I1
tp514
(I1
I1
tp515
tp516
aF-0.01
aa(lp517
((I4
I2
tp518
(I10
I4
tp519
(I0
I1
tp520
(I1
I1
tp521
tp522
aF-0.01
aa(lp523
((I4
I2
tp524
(I9
I4
tp525
(I0
I1
tp526
(I1
I1
tp527
tp528
aF-0.01
aa(lp529
((I4
I2
tp530
(I8
I4
tp531
(I0
I1
tp532
(I1
I1
tp533
tp534
aF-0.01
aa(lp535
((I4
I2
tp536
(I7
I4
tp537
(I0
I1
tp538
(I1
I1
tp539
tp540
aF-0.01
aa(lp541
((I3
I2
tp542
(I6
I4
tp543
(I0
I1
tp544
(I1
I1
tp545
tp546
aF-0.01
aa(lp547
((I3
I2
tp548
(I6
I3
tp549
(I0
I1
tp550
(I1
I1
tp551
tp552
aF-0.01
aa(lp553
((I2
I2
tp554
(I5
I3
tp555
(I0
I1
tp556
(I1
I1
tp557
tp558
aF-0.01
aa(lp559
((I2
I2
tp560
(I4
I3
tp561
(I0
I1
tp562
(I1
I1
tp563
tp564
aF-0.01
aa(lp565
((I1
I2
tp566
(I3
I3
tp567
(I0
I1
tp568
(I1
I1
tp569
tp570
aF-0.01
aa(lp571
((I1
I2
tp572
(I2
I3
tp573
(I0
I1
tp574
(I1
I1
tp575
tp576
aF-0.01
aa(lp577
((I1
I2
tp578
(I2
I2
tp579
(I0
I1
tp580
(I1
I1
tp581
tp582
aI-1
aa(lp583
((I4
I4
tp584
(I7
I4
tp585
(I0
I2
tp586
(I1
I1
tp587
tp588
aF-0.01
aa(lp589
((I4
I4
tp590
(I6
I4
tp591
(I0
I2
tp592
(I1
I1
tp593
tp594
aF-0.01
aa(lp595
((I4
I4
tp596
(I5
I4
tp597
(I0
I2
tp598
(I1
I1
tp599
tp600
aF-0.01
aa(lp601
((I4
I3
tp602
(I5
I3
tp603
(I0
I2
tp604
(I1
I1
tp605
tp606
aF-0.01
aa(lp607
((I4
I2
tp608
(I5
I2
tp609
(I0
I2
tp610
(I1
I1
tp611
tp612
aF-0.01
aa(lp613
((I4
I1
tp614
(I5
I1
tp615
(I0
I2
tp616
(I1
I1
tp617
tp618
aI1
aa(lp619
((I4
I3
tp620
(I5
I4
tp621
(I0
I1
tp622
(I1
I1
tp623
tp624
aF-0.01
aa(lp625
((I3
I3
tp626
(I4
I4
tp627
(I0
I1
tp628
(I1
I1
tp629
tp630
aF-0.01
aa(lp631
((I2
I3
tp632
(I3
I4
tp633
(I0
I1
tp634
(I1
I1
tp635
tp636
aF-0.01
aa(lp637
((I2
I2
tp638
(I3
I3
tp639
(I0
I1
tp640
(I1
I1
tp641
tp642
aF-0.01
aa(lp643
((I2
I1
tp644
(I3
I2
tp645
(I0
I1
tp646
(I1
I1
tp647
tp648
aF-0.01
aa(lp649
((I2
I1
tp650
(I3
I1
tp651
(I0
I1
tp652
(I1
I1
tp653
tp654
aF-0.01
aa(lp655
((I1
I1
tp656
(I2
I1
tp657
(I0
I1
tp658
(I1
I1
tp659
tp660
aF-0.01
aa(lp661
((I1
I1
tp662
(I2
I1
tp663
(I1
I1
tp664
(I1
I1
tp665
tp666
aF-0.01
aa(lp667
((I1
I1
tp668
(I4
I1
tp669
(I0
I1
tp670
(I1
I1
tp671
tp672
aI-1
aa(lp673
((I3
I4
tp674
(I5
I4
tp675
(I0
I2
tp676
(I1
I1
tp677
tp678
aF-0.01
aa(lp679
((I2
I4
tp680
(I4
I4
tp681
(I0
I2
tp682
(I1
I1
tp683
tp684
aF-0.01
aa(lp685
((I1
I4
tp686
(I3
I4
tp687
(I0
I2
tp688
(I1
I1
tp689
tp690
aF-0.01
aa(lp691
((I1
I4
tp692
(I2
I4
tp693
(I0
I2
tp694
(I1
I1
tp695
tp696
aF-0.01
aa(lp697
((I1
I4
tp698
(I2
I4
tp699
(I1
I2
tp700
(I1
I1
tp701
tp702
aF-0.01
aa(lp703
((I1
I4
tp704
(I4
I4
tp705
(I0
I2
tp706
(I1
I1
tp707
tp708
aF-0.01
aa(lp709
((I1
I3
tp710
(I4
I3
tp711
(I0
I2
tp712
(I1
I1
tp713
tp714
aF-0.01
aa(lp715
((I1
I3
tp716
(I3
I3
tp717
(I0
I2
tp718
(I1
I1
tp719
tp720
aF-0.01
aa(lp721
((I1
I3
tp722
(I2
I3
tp723
(I0
I2
tp724
(I1
I1
tp725
tp726
aF-0.01
aa(lp727
((I1
I2
tp728
(I2
I2
tp729
(I0
I2
tp730
(I1
I1
tp731
tp732
aF-0.01
aa(lp733
((I1
I1
tp734
(I2
I1
tp735
(I0
I2
tp736
(I1
I1
tp737
tp738
aI-1
aa(lp739
((I3
I4
tp740
(I4
I5
tp741
(I0
I1
tp742
(I1
I1
tp743
tp744
aF-0.01
aa(lp745
((I3
I4
tp746
(I3
I5
tp747
(I0
I2
tp748
(I1
I1
tp749
tp750
aF-0.01
aa(lp751
((I3
I4
tp752
(I3
I4
tp753
(I0
I2
tp754
(I1
I1
tp755
tp756
aF-0.01
aa(lp757
((I2
I4
tp758
(I2
I4
tp759
(I0
I2
tp760
(I1
I1
tp761
tp762
aF-0.01
aa(lp763
((I2
I3
tp764
(I2
I3
tp765
(I0
I2
tp766
(I1
I1
tp767
tp768
aF-0.01
aa(lp769
((I1
I3
tp770
(I1
I3
tp771
(I0
I2
tp772
(I1
I1
tp773
tp774
aF-0.01
aa(lp775
((I1
I2
tp776
(I1
I2
tp777
(I0
I2
tp778
(I1
I1
tp779
tp780
aI-1
aa(lp781
((I4
I3
tp782
(I7
I5
tp783
(I0
I1
tp784
(I1
I1
tp785
tp786
aF-0.01
aa(lp787
((I3
I2
tp788
(I5
I4
tp789
(I0
I1
tp790
(I1
I1
tp791
tp792
aF-0.01
aa(lp793
((I3
I2
tp794
(I5
I4
tp795
(I0
I2
tp796
(I1
I1
tp797
tp798
aF-0.01
aa(lp799
((I3
I2
tp800
(I4
I4
tp801
(I0
I2
tp802
(I1
I1
tp803
tp804
aF-0.01
aa(lp805
((I2
I2
tp806
(I3
I4
tp807
(I0
I2
tp808
(I1
I1
tp809
tp810
aF-0.01
aa(lp811
((I2
I2
tp812
(I3
I3
tp813
(I0
I2
tp814
(I1
I1
tp815
tp816
aF-0.01
aa(lp817
((I2
I2
tp818
(I2
I3
tp819
(I0
I2
tp820
(I1
I1
tp821
tp822
aF-0.01
aa(lp823
((I1
I2
tp824
(I1
I3
tp825
(I0
I2
tp826
(I1
I1
tp827
tp828
aF-0.01
aa(lp829
((I1
I1
tp830
(I1
I1
tp831
(I0
I2
tp832
(I1
I1
tp833
tp834
aI1
aa(lp835
((I3
I3
tp836
(I7
I5
tp837
(I0
I1
tp838
(I1
I1
tp839
tp840
aF-0.01
aa(lp841
((I3
I3
tp842
(I7
I4
tp843
(I0
I1
tp844
(I1
I1
tp845
tp846
aF-0.01
aa(lp847
((I3
I3
tp848
(I7
I3
tp849
(I1
I1
tp850
(I1
I1
tp851
tp852
aF-0.01
aa(lp853
((I3
I3
tp854
(I9
I3
tp855
(I0
I1
tp856
(I1
I1
tp857
tp858
aF-0.01
aa(lp859
((I3
I3
tp860
(I8
I3
tp861
(I0
I1
tp862
(I1
I1
tp863
tp864
aF-0.01
aa(lp865
((I3
I2
tp866
(I6
I2
tp867
(I0
I1
tp868
(I1
I1
tp869
tp870
aF-0.01
aa(lp871
((I3
I1
tp872
(I5
I1
tp873
(I0
I1
tp874
(I1
I1
tp875
tp876
aF-0.01
aa(lp877
((I3
I1
tp878
(I5
I1
tp879
(I1
I1
tp880
(I1
I1
tp881
tp882
aF-0.01
aa(lp883
((I3
I1
tp884
(I7
I1
tp885
(I0
I1
tp886
(I1
I1
tp887
tp888
aF-0.01
aa(lp889
((I3
I1
tp890
(I7
I1
tp891
(I1
I1
tp892
(I1
I1
tp893
tp894
aF-0.01
aa(lp895
((I3
I1
tp896
(I9
I1
tp897
(I0
I1
tp898
(I1
I1
tp899
tp900
aF-0.01
aa(lp901
((I2
I1
tp902
(I8
I1
tp903
(I0
I1
tp904
(I1
I1
tp905
tp906
aI1
aa(lp907
((I4
I3
tp908
(I4
I3
tp909
(I0
I1
tp910
(I1
I1
tp911
tp912
aF-0.01
aa(lp913
((I3
I3
tp914
(I3
I3
tp915
(I0
I1
tp916
(I1
I1
tp917
tp918
aF-0.01
aa(lp919
((I2
I2
tp920
(I2
I2
tp921
(I0
I1
tp922
(I1
I1
tp923
tp924
aF-0.01
aa(lp925
((I2
I1
tp926
(I2
I1
tp927
(I0
I1
tp928
(I1
I1
tp929
tp930
aF-0.01
aa(lp931
((I1
I1
tp932
(I1
I1
tp933
(I0
I1
tp934
(I1
I1
tp935
tp936
aI-1
aa(lp937
((I2
I3
tp938
(I6
I5
tp939
(I0
I1
tp940
(I1
I1
tp941
tp942
aF-0.01
aa(lp943
((I1
I3
tp944
(I5
I5
tp945
(I0
I1
tp946
(I1
I1
tp947
tp948
aF-0.01
aa(lp949
((I1
I3
tp950
(I4
I4
tp951
(I0
I1
tp952
(I1
I1
tp953
tp954
aF-0.01
aa(lp955
((I1
I2
tp956
(I4
I3
tp957
(I0
I1
tp958
(I1
I1
tp959
tp960
aF-0.01
aa(lp961
((I1
I2
tp962
(I4
I2
tp963
(I0
I1
tp964
(I1
I1
tp965
tp966
aI-1
aa(lp967
((I4
I1
tp968
(I8
I3
tp969
(I0
I1
tp970
(I1
I1
tp971
tp972
aF-0.01
aa(lp973
((I3
I1
tp974
(I7
I3
tp975
(I0
I1
tp976
(I1
I1
tp977
tp978
aI1
aa(lp979
((I3
I4
tp980
(I7
I5
tp981
(I0
I1
tp982
(I1
I1
tp983
tp984
aF-0.01
aa(lp985
((I2
I4
tp986
(I5
I5
tp987
(I0
I1
tp988
(I1
I1
tp989
tp990
aF-0.01
aa(lp991
((I2
I3
tp992
(I5
I4
tp993
(I0
I1
tp994
(I1
I1
tp995
tp996
aF-0.01
aa(lp997
((I2
I3
tp998
(I4
I4
tp999
(I0
I1
tp1000
(I1
I1
tp1001
tp1002
aF-0.01
aa(lp1003
((I1
I2
tp1004
(I3
I2
tp1005
(I0
I1
tp1006
(I1
I1
tp1007
tp1008
aF-0.01
aa(lp1009
((I1
I2
tp1010
(I2
I2
tp1011
(I1
I1
tp1012
(I1
I1
tp1013
tp1014
aF-0.01
aa(lp1015
((I1
I1
tp1016
(I3
I1
tp1017
(I0
I1
tp1018
(I1
I1
tp1019
tp1020
aF2.0
aa(lp1021
((I3
I4
tp1022
(I6
I5
tp1023
(I0
I1
tp1024
(I1
I1
tp1025
tp1026
aF-0.01
aa(lp1027
((I2
I3
tp1028
(I5
I4
tp1029
(I1
I1
tp1030
(I1
I1
tp1031
tp1032
aF-0.01
aa(lp1033
((I2
I3
tp1034
(I4
I4
tp1035
(I1
I1
tp1036
(I1
I1
tp1037
tp1038
aF-0.01
aa(lp1039
((I2
I3
tp1040
(I6
I4
tp1041
(I1
I1
tp1042
(I1
I1
tp1043
tp1044
aF-0.01
aa(lp1045
((I2
I3
tp1046
(I8
I4
tp1047
(I0
I1
tp1048
(I1
I1
tp1049
tp1050
aF-0.01
aa(lp1051
((I2
I3
tp1052
(I7
I4
tp1053
(I0
I1
tp1054
(I1
I1
tp1055
tp1056
aF-0.01
aa(lp1057
((I2
I3
tp1058
(I7
I3
tp1059
(I0
I1
tp1060
(I1
I1
tp1061
tp1062
aF-0.01
aa(lp1063
((I2
I3
tp1064
(I7
I3
tp1065
(I1
I1
tp1066
(I1
I1
tp1067
tp1068
aF-0.01
aa(lp1069
((I2
I3
tp1070
(I9
I3
tp1071
(I0
I1
tp1072
(I1
I1
tp1073
tp1074
aF-0.01
aa(lp1075
((I2
I2
tp1076
(I7
I2
tp1077
(I1
I1
tp1078
(I1
I1
tp1079
tp1080
aF-0.01
aa(lp1081
((I2
I2
tp1082
(I6
I2
tp1083
(I1
I1
tp1084
(I1
I1
tp1085
tp1086
aF-0.01
aa(lp1087
((I2
I2
tp1088
(I8
I2
tp1089
(I0
I1
tp1090
(I1
I1
tp1091
tp1092
aF-0.01
aa(lp1093
((I2
I2
tp1094
(I7
I2
tp1095
(I0
I1
tp1096
(I1
I1
tp1097
tp1098
aF-0.01
aa(lp1099
((I2
I1
tp1100
(I7
I1
tp1101
(I0
I1
tp1102
(I1
I1
tp1103
tp1104
aF-0.01
aa(lp1105
((I2
I1
tp1106
(I6
I1
tp1107
(I1
I1
tp1108
(I1
I1
tp1109
tp1110
aF302.99
aa(lp1111
((I2
I1
tp1112
(I8
I1
tp1113
(I1
I1
tp1114
(I1
I1
tp1115
tp1116
aF-0.01
aa(lp1117
((I2
I1
tp1118
(I10
I1
tp1119
(I0
I1
tp1120
(I1
I1
tp1121
tp1122
aF-0.01
aa(lp1123
((I2
I1
tp1124
(I9
I1
tp1125
(I0
I1
tp1126
(I1
I1
tp1127
tp1128
aF0.99
aa(lp1129
((I1
I1
tp1130
(I7
I1
tp1131
(I0
I1
tp1132
(I1
I1
tp1133
tp1134
aI1
aa(lp1135
((I3
I2
tp1136
(I7
I4
tp1137
(I0
I1
tp1138
(I1
I1
tp1139
tp1140
aF-0.01
aa(lp1141
((I3
I2
tp1142
(I7
I3
tp1143
(I0
I1
tp1144
(I1
I1
tp1145
tp1146
aF-0.01
aa(lp1147
((I3
I2
tp1148
(I5
I3
tp1149
(I0
I1
tp1150
(I1
I1
tp1151
tp1152
aF-0.01
aa(lp1153
((I3
I2
tp1154
(I5
I2
tp1155
(I0
I1
tp1156
(I1
I1
tp1157
tp1158
aF-0.01
aa(lp1159
((I3
I2
tp1160
(I5
I2
tp1161
(I1
I1
tp1162
(I1
I1
tp1163
tp1164
aF0.99
aa(lp1165
((I2
I4
tp1166
(I6
I4
tp1167
(I0
I1
tp1168
(I1
I1
tp1169
tp1170
aF-0.01
aa(lp1171
((I1
I4
tp1172
(I5
I4
tp1173
(I0
I1
tp1174
(I1
I1
tp1175
tp1176
aF-0.01
aa(lp1177
((I1
I4
tp1178
(I4
I4
tp1179
(I0
I1
tp1180
(I1
I1
tp1181
tp1182
aF-0.01
aa(lp1183
((I1
I4
tp1184
(I3
I4
tp1185
(I0
I1
tp1186
(I1
I1
tp1187
tp1188
aF-0.01
aa(lp1189
((I1
I3
tp1190
(I3
I3
tp1191
(I0
I1
tp1192
(I1
I1
tp1193
tp1194
aF-0.01
aa(lp1195
((I1
I2
tp1196
(I1
I2
tp1197
(I0
I1
tp1198
(I1
I1
tp1199
tp1200
aI-1
aa(lp1201
((I3
I3
tp1202
(I5
I5
tp1203
(I0
I1
tp1204
(I1
I1
tp1205
tp1206
aF-0.01
aa(lp1207
((I2
I2
tp1208
(I4
I4
tp1209
(I0
I1
tp1210
(I1
I1
tp1211
tp1212
aF-0.01
aa(lp1213
((I2
I1
tp1214
(I4
I3
tp1215
(I0
I1
tp1216
(I1
I1
tp1217
tp1218
aF-0.01
aa(lp1219
((I1
I1
tp1220
(I3
I3
tp1221
(I0
I1
tp1222
(I1
I1
tp1223
tp1224
aI1
aa(lp1225
((I2
I3
tp1226
(I4
I5
tp1227
(I0
I1
tp1228
(I1
I1
tp1229
tp1230
aF-0.01
aa(lp1231
((I2
I2
tp1232
(I4
I4
tp1233
(I0
I2
tp1234
(I1
I1
tp1235
tp1236
aF-0.01
aa(lp1237
((I2
I2
tp1238
(I4
I3
tp1239
(I0
I2
tp1240
(I1
I1
tp1241
tp1242
aF-0.01
aa(lp1243
((I2
I1
tp1244
(I4
I2
tp1245
(I0
I2
tp1246
(I1
I1
tp1247
tp1248
aF-0.01
aa(lp1249
((I1
I1
tp1250
(I3
I2
tp1251
(I0
I2
tp1252
(I1
I1
tp1253
tp1254
aF-0.01
aa(lp1255
((I1
I1
tp1256
(I2
I2
tp1257
(I0
I2
tp1258
(I1
I1
tp1259
tp1260
aI-1
aa(lp1261
((I3
I4
tp1262
(I6
I6
tp1263
(I0
I1
tp1264
(I1
I1
tp1265
tp1266
aF-0.01
aa(lp1267
((I2
I4
tp1268
(I5
I6
tp1269
(I0
I1
tp1270
(I1
I1
tp1271
tp1272
aF-0.01
aa(lp1273
((I2
I4
tp1274
(I4
I6
tp1275
(I0
I1
tp1276
(I1
I1
tp1277
tp1278
aF-0.01
aa(lp1279
((I1
I4
tp1280
(I3
I6
tp1281
(I0
I1
tp1282
(I1
I1
tp1283
tp1284
aI-1
aa(lp1285
((I4
I3
tp1286
(I8
I4
tp1287
(I0
I2
tp1288
(I1
I1
tp1289
tp1290
aF-0.01
aa(lp1291
((I4
I2
tp1292
(I8
I3
tp1293
(I0
I2
tp1294
(I1
I1
tp1295
tp1296
aF-0.01
aa(lp1297
((I4
I1
tp1298
(I8
I2
tp1299
(I0
I2
tp1300
(I1
I1
tp1301
tp1302
aF-0.01
aa(lp1303
((I4
I1
tp1304
(I7
I2
tp1305
(I0
I2
tp1306
(I1
I1
tp1307
tp1308
aF18.0
aa(lp1309
((I4
I4
tp1310
(I10
I6
tp1311
(I0
I1
tp1312
(I1
I1
tp1313
tp1314
aF-0.01
aa(lp1315
((I4
I4
tp1316
(I10
I6
tp1317
(I1
I1
tp1318
(I1
I1
tp1319
tp1320
aF-0.01
aa(lp1321
((I4
I4
tp1322
(I12
I6
tp1323
(I0
I1
tp1324
(I1
I1
tp1325
tp1326
aF-0.01
aa(lp1327
((I4
I4
tp1328
(I11
I6
tp1329
(I0
I1
tp1330
(I1
I1
tp1331
tp1332
aF-0.01
aa(lp1333
((I4
I4
tp1334
(I11
I5
tp1335
(I0
I1
tp1336
(I1
I1
tp1337
tp1338
aF-0.01
aa(lp1339
((I4
I4
tp1340
(I10
I5
tp1341
(I0
I1
tp1342
(I1
I1
tp1343
tp1344
aF-0.01
aa(lp1345
((I4
I3
tp1346
(I10
I4
tp1347
(I0
I1
tp1348
(I1
I1
tp1349
tp1350
aF-0.01
aa(lp1351
((I4
I3
tp1352
(I10
I3
tp1353
(I0
I1
tp1354
(I1
I1
tp1355
tp1356
aF-0.01
aa(lp1357
((I4
I3
tp1358
(I9
I3
tp1359
(I0
I1
tp1360
(I1
I1
tp1361
tp1362
aF-0.01
aa(lp1363
((I3
I3
tp1364
(I6
I3
tp1365
(I0
I1
tp1366
(I1
I1
tp1367
tp1368
aF-0.01
aa(lp1369
((I2
I3
tp1370
(I5
I3
tp1371
(I0
I1
tp1372
(I1
I1
tp1373
tp1374
aF-0.01
aa(lp1375
((I2
I2
tp1376
(I5
I2
tp1377
(I0
I1
tp1378
(I1
I1
tp1379
tp1380
aI-1
aa(lp1381
((I4
I1
tp1382
(I7
I3
tp1383
(I0
I1
tp1384
(I1
I1
tp1385
tp1386
aI-1
aa(lp1387
((I3
I1
tp1388
(I5
I3
tp1389
(I0
I1
tp1390
(I1
I1
tp1391
tp1392
aF-0.01
aa(lp1393
((I2
I1
tp1394
(I3
I3
tp1395
(I0
I1
tp1396
(I1
I1
tp1397
tp1398
aI-1
aa(lp1399
((I4
I4
tp1400
(I9
I6
tp1401
(I0
I1
tp1402
(I1
I1
tp1403
tp1404
aF262.99
aa(lp1405
((I3
I3
tp1406
(I6
I4
tp1407
(I0
I1
tp1408
(I1
I1
tp1409
tp1410
aF-0.01
aa(lp1411
((I3
I1
tp1412
(I6
I2
tp1413
(I0
I1
tp1414
(I1
I1
tp1415
tp1416
aI1
aa(lp1417
((I4
I3
tp1418
(I8
I5
tp1419
(I0
I2
tp1420
(I1
I1
tp1421
tp1422
aF-0.01
aa(lp1423
((I4
I2
tp1424
(I8
I4
tp1425
(I0
I2
tp1426
(I1
I1
tp1427
tp1428
aF-0.01
aa(lp1429
((I4
I2
tp1430
(I7
I4
tp1431
(I0
I2
tp1432
(I1
I1
tp1433
tp1434
aF-0.01
aa(lp1435
((I4
I2
tp1436
(I7
I4
tp1437
(I0
I3
tp1438
(I1
I1
tp1439
tp1440
aF-0.01
aa(lp1441
((I4
I2
tp1442
(I7
I6
tp1443
(I0
I2
tp1444
(I1
I1
tp1445
tp1446
aF-0.01
aa(lp1447
((I4
I2
tp1448
(I6
I6
tp1449
(I0
I2
tp1450
(I1
I1
tp1451
tp1452
aF-0.01
aa(lp1453
((I4
I2
tp1454
(I6
I6
tp1455
(I0
I3
tp1456
(I1
I1
tp1457
tp1458
aF-0.01
aa(lp1459
((I4
I2
tp1460
(I6
I8
tp1461
(I0
I1
tp1462
(I1
I1
tp1463
tp1464
aF-0.01
aa(lp1465
((I4
I2
tp1466
(I5
I8
tp1467
(I0
I1
tp1468
(I1
I1
tp1469
tp1470
aF-0.01
aa(lp1471
((I3
I2
tp1472
(I4
I8
tp1473
(I0
I2
tp1474
(I1
I1
tp1475
tp1476
aF-0.01
aa(lp1477
((I3
I1
tp1478
(I4
I7
tp1479
(I0
I2
tp1480
(I1
I1
tp1481
tp1482
aF-0.01
aa(lp1483
((I2
I1
tp1484
(I3
I7
tp1485
(I0
I2
tp1486
(I1
I1
tp1487
tp1488
aI1
aa(lp1489
((I4
I4
tp1490
(I6
I6
tp1491
(I1
I2
tp1492
(I1
I1
tp1493
tp1494
aF-0.01
aa(lp1495
((I4
I4
tp1496
(I8
I6
tp1497
(I0
I3
tp1498
(I1
I1
tp1499
tp1500
aF-0.01
aa(lp1501
((I4
I4
tp1502
(I8
I9
tp1503
(I0
I0
tp1504
(I1
I1
tp1505
tp1506
aF-0.01
aa(lp1507
((I4
I4
tp1508
(I8
I9
tp1509
(I0
I1
tp1510
(I1
I1
tp1511
tp1512
aF-0.01
aa(lp1513
((I4
I4
tp1514
(I8
I8
tp1515
(I0
I1
tp1516
(I1
I1
tp1517
tp1518
aF-0.01
aa(lp1519
((I4
I4
tp1520
(I8
I7
tp1521
(I0
I1
tp1522
(I1
I1
tp1523
tp1524
aF-0.01
aa(lp1525
((I4
I3
tp1526
(I8
I6
tp1527
(I0
I1
tp1528
(I1
I1
tp1529
tp1530
aF-0.01
aa(lp1531
((I3
I3
tp1532
(I7
I6
tp1533
(I0
I1
tp1534
(I1
I1
tp1535
tp1536
aF-0.01
aa(lp1537
((I3
I3
tp1538
(I6
I6
tp1539
(I0
I1
tp1540
(I1
I1
tp1541
tp1542
aF-0.01
aa(lp1543
((I3
I2
tp1544
(I6
I5
tp1545
(I0
I1
tp1546
(I1
I1
tp1547
tp1548
aF0.99
aa(lp1549
((I4
I4
tp1550
(I12
I6
tp1551
(I1
I1
tp1552
(I1
I1
tp1553
tp1554
aF-0.01
aa(lp1555
((I4
I4
tp1556
(I14
I6
tp1557
(I0
I1
tp1558
(I1
I1
tp1559
tp1560
aF-0.01
aa(lp1561
((I4
I3
tp1562
(I14
I5
tp1563
(I0
I1
tp1564
(I1
I1
tp1565
tp1566
aF-0.01
aa(lp1567
((I4
I2
tp1568
(I14
I4
tp1569
(I0
I1
tp1570
(I1
I1
tp1571
tp1572
aF-0.01
aa(lp1573
((I4
I2
tp1574
(I14
I3
tp1575
(I0
I1
tp1576
(I1
I1
tp1577
tp1578
aF-0.01
aa(lp1579
((I4
I1
tp1580
(I14
I2
tp1581
(I0
I1
tp1582
(I1
I1
tp1583
tp1584
aF-0.01
aa(lp1585
((I4
I1
tp1586
(I14
I2
tp1587
(I1
I1
tp1588
(I1
I1
tp1589
tp1590
aF-0.01
aa(lp1591
((I4
I1
tp1592
(I13
I2
tp1593
(I1
I1
tp1594
(I1
I1
tp1595
tp1596
aF-0.01
aa(lp1597
((I4
I1
tp1598
(I13
I1
tp1599
(I1
I1
tp1600
(I1
I1
tp1601
tp1602
aF-0.01
aa(lp1603
((I4
I1
tp1604
(I15
I1
tp1605
(I0
I1
tp1606
(I1
I1
tp1607
tp1608
aF-0.01
aa(lp1609
((I4
I1
tp1610
(I14
I1
tp1611
(I0
I1
tp1612
(I1
I1
tp1613
tp1614
aF-0.01
aa(lp1615
((I4
I1
tp1616
(I13
I1
tp1617
(I0
I1
tp1618
(I1
I1
tp1619
tp1620
aF-0.01
aa(lp1621
((I4
I1
tp1622
(I12
I1
tp1623
(I1
I1
tp1624
(I1
I1
tp1625
tp1626
aI1
aa(lp1627
((I4
I3
tp1628
(I5
I5
tp1629
(I0
I1
tp1630
(I1
I1
tp1631
tp1632
aF-0.01
aa(lp1633
((I4
I2
tp1634
(I5
I4
tp1635
(I0
I1
tp1636
(I1
I1
tp1637
tp1638
aF-0.01
aa(lp1639
((I4
I1
tp1640
(I5
I3
tp1641
(I0
I1
tp1642
(I1
I1
tp1643
tp1644
aF-0.01
aa(lp1645
((I4
I1
tp1646
(I4
I3
tp1647
(I0
I1
tp1648
(I1
I1
tp1649
tp1650
aF-0.01
aa(lp1651
((I4
I1
tp1652
(I4
I2
tp1653
(I0
I1
tp1654
(I1
I1
tp1655
tp1656
aF-0.01
aa(lp1657
((I3
I1
tp1658
(I3
I2
tp1659
(I0
I1
tp1660
(I1
I1
tp1661
tp1662
aF858.99
aa(lp1663
((I4
I2
tp1664
(I7
I3
tp1665
(I0
I2
tp1666
(I1
I1
tp1667
tp1668
aF605.99
aa(lp1669
((I4
I3
tp1670
(I8
I5
tp1671
(I0
I3
tp1672
(I1
I1
tp1673
tp1674
aF-0.01
aa(lp1675
((I4
I3
tp1676
(I8
I8
tp1677
(I0
I0
tp1678
(I1
I1
tp1679
tp1680
aF-0.01
aa(lp1681
((I4
I3
tp1682
(I6
I8
tp1683
(I0
I0
tp1684
(I1
I1
tp1685
tp1686
aF-0.01
aa(lp1687
((I4
I3
tp1688
(I4
I8
tp1689
(I0
I0
tp1690
(I1
I1
tp1691
tp1692
aF-0.01
aa(lp1693
((I4
I3
tp1694
(I4
I7
tp1695
(I0
I0
tp1696
(I1
I1
tp1697
tp1698
aF-0.01
aa(lp1699
((I4
I2
tp1700
(I4
I6
tp1701
(I0
I0
tp1702
(I1
I1
tp1703
tp1704
aF-0.01
aa(lp1705
((I4
I1
tp1706
(I4
I5
tp1707
(I0
I0
tp1708
(I1
I1
tp1709
tp1710
aF-0.01
aa(lp1711
((I3
I1
tp1712
(I3
I5
tp1713
(I0
I0
tp1714
(I1
I1
tp1715
tp1716
aF-0.01
aa(lp1717
((I3
I1
tp1718
(I3
I4
tp1719
(I0
I0
tp1720
(I1
I1
tp1721
tp1722
aF-0.01
aa(lp1723
((I3
I1
tp1724
(I3
I3
tp1725
(I0
I0
tp1726
(I1
I1
tp1727
tp1728
aF-0.01
aa(lp1729
((I3
I1
tp1730
(I3
I2
tp1731
(I0
I0
tp1732
(I1
I1
tp1733
tp1734
aF2.0
aa(lp1735
((I3
I1
tp1736
(I5
I2
tp1737
(I0
I1
tp1738
(I1
I1
tp1739
tp1740
aF-0.01
aa(lp1741
((I3
I1
tp1742
(I5
I2
tp1743
(I0
I2
tp1744
(I1
I1
tp1745
tp1746
aF-0.01
aa(lp1747
((I3
I1
tp1748
(I5
I1
tp1749
(I0
I2
tp1750
(I1
I1
tp1751
tp1752
aF-0.01
aa(lp1753
((I3
I1
tp1754
(I4
I1
tp1755
(I0
I2
tp1756
(I1
I1
tp1757
tp1758
aF-0.01
aa(lp1759
((I3
I1
tp1760
(I3
I1
tp1761
(I0
I2
tp1762
(I1
I1
tp1763
tp1764
aF-0.01
aa(lp1765
((I2
I1
tp1766
(I2
I1
tp1767
(I0
I2
tp1768
(I1
I1
tp1769
tp1770
aI1
aa(lp1771
((I1
I4
tp1772
(I4
I6
tp1773
(I0
I1
tp1774
(I1
I1
tp1775
tp1776
aI-1
aa(lp1777
((I4
I4
tp1778
(I6
I8
tp1779
(I1
I0
tp1780
(I1
I1
tp1781
tp1782
aF-0.01
aa(lp1783
((I4
I4
tp1784
(I8
I8
tp1785
(I0
I0
tp1786
(I1
I1
tp1787
tp1788
aF-0.01
aa(lp1789
((I3
I4
tp1790
(I7
I8
tp1791
(I0
I0
tp1792
(I1
I1
tp1793
tp1794
aF-0.01
aa(lp1795
((I3
I4
tp1796
(I7
I7
tp1797
(I0
I0
tp1798
(I1
I1
tp1799
tp1800
aF-0.01
aa(lp1801
((I2
I4
tp1802
(I6
I7
tp1803
(I0
I0
tp1804
(I1
I1
tp1805
tp1806
aF-0.01
aa(lp1807
((I1
I4
tp1808
(I5
I7
tp1809
(I0
I0
tp1810
(I1
I1
tp1811
tp1812
aF-0.01
aa(lp1813
((I1
I3
tp1814
(I5
I6
tp1815
(I0
I0
tp1816
(I1
I1
tp1817
tp1818
aF-0.01
aa(lp1819
((I1
I3
tp1820
(I4
I6
tp1821
(I0
I0
tp1822
(I1
I1
tp1823
tp1824
aF-0.01
aa(lp1825
((I1
I2
tp1826
(I4
I5
tp1827
(I0
I0
tp1828
(I1
I1
tp1829
tp1830
aF-0.01
aa(lp1831
((I1
I2
tp1832
(I4
I5
tp1833
(I1
I0
tp1834
(I1
I1
tp1835
tp1836
aI-1
aa(lp1837
((I4
I4
tp1838
(I7
I8
tp1839
(I0
I0
tp1840
(I1
I1
tp1841
tp1842
aF-0.01
aa(lp1843
((I4
I4
tp1844
(I6
I8
tp1845
(I0
I0
tp1846
(I1
I1
tp1847
tp1848
aF-0.01
aa(lp1849
((I3
I4
tp1850
(I5
I8
tp1851
(I0
I0
tp1852
(I1
I1
tp1853
tp1854
aF-0.01
aa(lp1855
((I3
I4
tp1856
(I5
I8
tp1857
(I1
I0
tp1858
(I1
I1
tp1859
tp1860
aF-0.01
aa(lp1861
((I3
I4
tp1862
(I5
I7
tp1863
(I1
I0
tp1864
(I1
I1
tp1865
tp1866
aF-0.01
aa(lp1867
((I3
I4
tp1868
(I6
I7
tp1869
(I0
I0
tp1870
(I1
I1
tp1871
tp1872
aF-0.01
aa(lp1873
((I3
I4
tp1874
(I5
I7
tp1875
(I0
I0
tp1876
(I1
I1
tp1877
tp1878
aF-0.01
aa(lp1879
((I3
I4
tp1880
(I5
I7
tp1881
(I0
I1
tp1882
(I1
I1
tp1883
tp1884
aF-0.01
aa(lp1885
((I3
I4
tp1886
(I5
I9
tp1887
(I0
I0
tp1888
(I1
I1
tp1889
tp1890
aF-0.01
aa(lp1891
((I3
I3
tp1892
(I5
I8
tp1893
(I0
I0
tp1894
(I1
I1
tp1895
tp1896
aF-0.01
aa(lp1897
((I3
I3
tp1898
(I4
I8
tp1899
(I0
I0
tp1900
(I1
I1
tp1901
tp1902
aF-0.01
aa(lp1903
((I3
I3
tp1904
(I4
I7
tp1905
(I0
I0
tp1906
(I1
I1
tp1907
tp1908
aF-0.01
aa(lp1909
((I2
I3
tp1910
(I3
I7
tp1911
(I0
I0
tp1912
(I1
I1
tp1913
tp1914
aF-0.01
aa(lp1915
((I2
I3
tp1916
(I3
I6
tp1917
(I0
I0
tp1918
(I1
I1
tp1919
tp1920
aF-0.01
aa(lp1921
((I1
I3
tp1922
(I2
I6
tp1923
(I0
I0
tp1924
(I1
I1
tp1925
tp1926
aF-0.01
aa(lp1927
((I1
I3
tp1928
(I2
I5
tp1929
(I0
I0
tp1930
(I1
I1
tp1931
tp1932
aF-0.01
aa(lp1933
((I1
I3
tp1934
(I2
I4
tp1935
(I0
I0
tp1936
(I1
I1
tp1937
tp1938
aF-0.01
aa(lp1939
((I1
I3
tp1940
(I1
I4
tp1941
(I0
I0
tp1942
(I1
I1
tp1943
tp1944
aI-1
aa(lp1945
((I2
I4
tp1946
(I4
I5
tp1947
(I0
I1
tp1948
(I1
I1
tp1949
tp1950
aF-0.01
aa(lp1951
((I2
I4
tp1952
(I3
I5
tp1953
(I0
I1
tp1954
(I1
I1
tp1955
tp1956
aF-0.01
aa(lp1957
((I2
I4
tp1958
(I3
I4
tp1959
(I0
I1
tp1960
(I1
I1
tp1961
tp1962
aF-0.01
aa(lp1963
((I2
I3
tp1964
(I3
I3
tp1965
(I0
I1
tp1966
(I1
I1
tp1967
tp1968
aF-0.01
aa(lp1969
((I1
I3
tp1970
(I2
I3
tp1971
(I0
I1
tp1972
(I1
I1
tp1973
tp1974
aI-1
aa(lp1975
((I4
I4
tp1976
(I8
I4
tp1977
(I1
I1
tp1978
(I1
I1
tp1979
tp1980
aF-0.01
aa(lp1981
((I4
I4
tp1982
(I10
I4
tp1983
(I0
I1
tp1984
(I1
I1
tp1985
tp1986
aF-0.01
aa(lp1987
((I3
I4
tp1988
(I9
I4
tp1989
(I0
I1
tp1990
(I1
I1
tp1991
tp1992
aF-0.01
aa(lp1993
((I3
I2
tp1994
(I9
I2
tp1995
(I0
I1
tp1996
(I1
I1
tp1997
tp1998
aF-0.01
aa(lp1999
((I3
I2
tp2000
(I8
I2
tp2001
(I0
I1
tp2002
(I1
I1
tp2003
tp2004
aF-0.01
aa(lp2005
((I2
I2
tp2006
(I4
I2
tp2007
(I0
I1
tp2008
(I1
I1
tp2009
tp2010
aI-1
aa(lp2011
((I4
I3
tp2012
(I9
I5
tp2013
(I0
I1
tp2014
(I1
I1
tp2015
tp2016
aF0.99
aa(lp2017
((I4
I1
tp2018
(I7
I2
tp2019
(I0
I1
tp2020
(I1
I1
tp2021
tp2022
aF-0.01
aa(lp2023
((I4
I1
tp2024
(I6
I2
tp2025
(I0
I1
tp2026
(I1
I1
tp2027
tp2028
aF-0.01
aa(lp2029
((I4
I1
tp2030
(I6
I2
tp2031
(I1
I1
tp2032
(I1
I1
tp2033
tp2034
aF-0.01
aa(lp2035
((I4
I1
tp2036
(I8
I2
tp2037
(I0
I1
tp2038
(I1
I1
tp2039
tp2040
aF0.99
aa(lp2041
((I4
I1
tp2042
(I6
I1
tp2043
(I0
I1
tp2044
(I1
I1
tp2045
tp2046
aI1
aa(lp2047
((I4
I3
tp2048
(I4
I4
tp2049
(I0
I1
tp2050
(I1
I1
tp2051
tp2052
aF-0.01
aa(lp2053
((I4
I3
tp2054
(I4
I4
tp2055
(I0
I2
tp2056
(I1
I1
tp2057
tp2058
aF-0.01
aa(lp2059
((I3
I3
tp2060
(I3
I4
tp2061
(I0
I2
tp2062
(I1
I1
tp2063
tp2064
aF-0.01
aa(lp2065
((I3
I3
tp2066
(I3
I3
tp2067
(I0
I2
tp2068
(I1
I1
tp2069
tp2070
aF-0.01
aa(lp2071
((I3
I2
tp2072
(I3
I2
tp2073
(I0
I2
tp2074
(I1
I1
tp2075
tp2076
aF-0.01
aa(lp2077
((I2
I2
tp2078
(I2
I2
tp2079
(I0
I2
tp2080
(I1
I1
tp2081
tp2082
aF0.0
aa(lp2083
((I4
I4
tp2084
(I7
I4
tp2085
(I0
I1
tp2086
(I1
I1
tp2087
tp2088
aF-0.01
aa(lp2089
((I4
I2
tp2090
(I6
I2
tp2091
(I0
I1
tp2092
(I1
I1
tp2093
tp2094
aI1
aa(lp2095
((I2
I1
tp2096
(I4
I1
tp2097
(I0
I1
tp2098
(I1
I1
tp2099
tp2100
aF3224.0
aa(lp2101
((I1
I3
tp2102
(I3
I5
tp2103
(I0
I1
tp2104
(I1
I1
tp2105
tp2106
aF-0.01
aa(lp2107
((I1
I2
tp2108
(I3
I4
tp2109
(I0
I1
tp2110
(I1
I1
tp2111
tp2112
aI-1
aa(lp2113
((I4
I4
tp2114
(I7
I5
tp2115
(I1
I2
tp2116
(I1
I1
tp2117
tp2118
aF-0.01
aa(lp2119
((I4
I4
tp2120
(I9
I5
tp2121
(I0
I2
tp2122
(I1
I1
tp2123
tp2124
aF0.99
aa(lp2125
((I4
I1
tp2126
(I7
I2
tp2127
(I1
I2
tp2128
(I1
I1
tp2129
tp2130
aF-0.01
aa(lp2131
((I4
I1
tp2132
(I9
I2
tp2133
(I0
I2
tp2134
(I1
I1
tp2135
tp2136
aF-0.01
aa(lp2137
((I3
I1
tp2138
(I8
I2
tp2139
(I0
I2
tp2140
(I1
I1
tp2141
tp2142
aF-0.01
aa(lp2143
((I3
I1
tp2144
(I8
I2
tp2145
(I1
I2
tp2146
(I1
I1
tp2147
tp2148
aF-0.01
aa(lp2149
((I2
I1
tp2150
(I7
I2
tp2151
(I1
I2
tp2152
(I1
I1
tp2153
tp2154
aI1
aa(lp2155
((I4
I4
tp2156
(I8
I6
tp2157
(I1
I2
tp2158
(I1
I1
tp2159
tp2160
aF-0.01
aa(lp2161
((I4
I4
tp2162
(I10
I6
tp2163
(I0
I2
tp2164
(I1
I1
tp2165
tp2166
aF-0.01
aa(lp2167
((I4
I3
tp2168
(I10
I5
tp2169
(I0
I2
tp2170
(I1
I1
tp2171
tp2172
aF-0.01
aa(lp2173
((I3
I3
tp2174
(I9
I5
tp2175
(I0
I2
tp2176
(I1
I1
tp2177
tp2178
aF-0.01
aa(lp2179
((I3
I3
tp2180
(I9
I4
tp2181
(I0
I2
tp2182
(I1
I1
tp2183
tp2184
aF-0.01
aa(lp2185
((I3
I3
tp2186
(I9
I4
tp2187
(I0
I3
tp2188
(I1
I1
tp2189
tp2190
aF-0.01
aa(lp2191
((I3
I3
tp2192
(I9
I6
tp2193
(I0
I2
tp2194
(I1
I1
tp2195
tp2196
aF-0.01
aa(lp2197
((I3
I2
tp2198
(I9
I5
tp2199
(I0
I2
tp2200
(I1
I1
tp2201
tp2202
aF-0.01
aa(lp2203
((I2
I2
tp2204
(I8
I5
tp2205
(I0
I2
tp2206
(I1
I1
tp2207
tp2208
aF-0.01
aa(lp2209
((I1
I2
tp2210
(I6
I5
tp2211
(I0
I2
tp2212
(I1
I1
tp2213
tp2214
aF-0.01
aa(lp2215
((I1
I1
tp2216
(I6
I4
tp2217
(I0
I2
tp2218
(I1
I1
tp2219
tp2220
aI-1
aa(lp2221
((I3
I4
tp2222
(I5
I6
tp2223
(I0
I1
tp2224
(I1
I1
tp2225
tp2226
aF-0.01
aa(lp2227
((I1
I3
tp2228
(I2
I5
tp2229
(I0
I1
tp2230
(I1
I1
tp2231
tp2232
aF-0.01
aa(lp2233
((I1
I3
tp2234
(I2
I5
tp2235
(I0
I2
tp2236
(I1
I1
tp2237
tp2238
aI-1
aa(lp2239
((I2
I2
tp2240
(I6
I4
tp2241
(I0
I1
tp2242
(I1
I1
tp2243
tp2244
aF-0.01
aa(lp2245
((I1
I2
tp2246
(I5
I4
tp2247
(I0
I1
tp2248
(I1
I1
tp2249
tp2250
aI-1
aa(lp2251
((I3
I4
tp2252
(I7
I6
tp2253
(I1
I2
tp2254
(I1
I1
tp2255
tp2256
aF-0.01
aa(lp2257
((I3
I4
tp2258
(I9
I6
tp2259
(I0
I2
tp2260
(I1
I1
tp2261
tp2262
aF-0.01
aa(lp2263
((I3
I4
tp2264
(I9
I5
tp2265
(I0
I2
tp2266
(I1
I1
tp2267
tp2268
aF-0.01
aa(lp2269
((I3
I4
tp2270
(I8
I4
tp2271
(I0
I2
tp2272
(I1
I1
tp2273
tp2274
aF-0.01
aa(lp2275
((I3
I3
tp2276
(I7
I3
tp2277
(I0
I2
tp2278
(I1
I1
tp2279
tp2280
aF-0.01
aa(lp2281
((I3
I3
tp2282
(I6
I3
tp2283
(I0
I2
tp2284
(I1
I1
tp2285
tp2286
aF-0.01
aa(lp2287
((I3
I2
tp2288
(I6
I2
tp2289
(I0
I2
tp2290
(I1
I1
tp2291
tp2292
aF-0.01
aa(lp2293
((I3
I1
tp2294
(I6
I1
tp2295
(I0
I2
tp2296
(I1
I1
tp2297
tp2298
aF-0.01
aa(lp2299
((I2
I1
tp2300
(I5
I1
tp2301
(I0
I2
tp2302
(I1
I1
tp2303
tp2304
aI1
aa(lp2305
((I3
I2
tp2306
(I6
I2
tp2307
(I1
I1
tp2308
(I1
I1
tp2309
tp2310
aF-0.01
aa(lp2311
((I2
I2
tp2312
(I5
I2
tp2313
(I1
I1
tp2314
(I1
I1
tp2315
tp2316
aF-0.01
aa(lp2317
((I2
I2
tp2318
(I4
I2
tp2319
(I1
I1
tp2320
(I1
I1
tp2321
tp2322
aF2.0
aa(lp2323
((I4
I4
tp2324
(I6
I4
tp2325
(I0
I1
tp2326
(I1
I1
tp2327
tp2328
aF-0.01
aa(lp2329
((I3
I4
tp2330
(I5
I4
tp2331
(I0
I1
tp2332
(I1
I1
tp2333
tp2334
aF-0.01
aa(lp2335
((I2
I4
tp2336
(I4
I4
tp2337
(I0
I1
tp2338
(I1
I1
tp2339
tp2340
aF-0.01
aa(lp2341
((I2
I3
tp2342
(I4
I3
tp2343
(I0
I1
tp2344
(I1
I1
tp2345
tp2346
aF2191.99
aa(lp2347
((I3
I3
tp2348
(I7
I4
tp2349
(I0
I2
tp2350
(I1
I1
tp2351
tp2352
aF-0.01
aa(lp2353
((I2
I3
tp2354
(I6
I4
tp2355
(I0
I2
tp2356
(I1
I1
tp2357
tp2358
aF-0.01
aa(lp2359
((I2
I2
tp2360
(I6
I3
tp2361
(I0
I2
tp2362
(I1
I1
tp2363
tp2364
aF-0.01
aa(lp2365
((I2
I1
tp2366
(I6
I2
tp2367
(I0
I2
tp2368
(I1
I1
tp2369
tp2370
aF-0.01
aa(lp2371
((I1
I1
tp2372
(I5
I2
tp2373
(I0
I2
tp2374
(I1
I1
tp2375
tp2376
aF-0.01
aa(lp2377
((I1
I1
tp2378
(I4
I2
tp2379
(I0
I2
tp2380
(I1
I1
tp2381
tp2382
aF2.0
aa(lp2383
((I3
I4
tp2384
(I5
I5
tp2385
(I0
I1
tp2386
(I1
I1
tp2387
tp2388
aF-0.01
aa(lp2389
((I1
I4
tp2390
(I1
I4
tp2391
(I0
I1
tp2392
(I1
I1
tp2393
tp2394
aI1
aa(lp2395
((I3
I4
tp2396
(I7
I6
tp2397
(I1
I1
tp2398
(I1
I1
tp2399
tp2400
aF-0.01
aa(lp2401
((I3
I4
tp2402
(I9
I6
tp2403
(I0
I1
tp2404
(I1
I1
tp2405
tp2406
aF-0.01
aa(lp2407
((I3
I3
tp2408
(I9
I5
tp2409
(I0
I1
tp2410
(I1
I1
tp2411
tp2412
aF-0.01
aa(lp2413
((I3
I2
tp2414
(I9
I4
tp2415
(I0
I1
tp2416
(I1
I1
tp2417
tp2418
aF-0.01
aa(lp2419
((I3
I1
tp2420
(I9
I3
tp2421
(I0
I1
tp2422
(I1
I1
tp2423
tp2424
aI1
aa(lp2425
((I1
I4
tp2426
(I4
I5
tp2427
(I1
I1
tp2428
(I1
I1
tp2429
tp2430
aF-0.01
aa(lp2431
((I1
I4
tp2432
(I6
I5
tp2433
(I0
I1
tp2434
(I1
I1
tp2435
tp2436
aI-1
aa(lp2437
((I4
I2
tp2438
(I7
I3
tp2439
(I0
I1
tp2440
(I1
I1
tp2441
tp2442
aF-0.01
aa(lp2443
((I2
I1
tp2444
(I4
I2
tp2445
(I0
I1
tp2446
(I1
I1
tp2447
tp2448
aI-1
aa(lp2449
((I3
I1
tp2450
(I6
I3
tp2451
(I0
I1
tp2452
(I1
I1
tp2453
tp2454
aI1
aa(lp2455
((I4
I4
tp2456
(I5
I4
tp2457
(I0
I1
tp2458
(I1
I1
tp2459
tp2460
aF-0.01
aa(lp2461
((I4
I4
tp2462
(I4
I4
tp2463
(I0
I1
tp2464
(I1
I1
tp2465
tp2466
aF-0.01
aa(lp2467
((I3
I4
tp2468
(I3
I4
tp2469
(I0
I1
tp2470
(I1
I1
tp2471
tp2472
aI-1
aa(lp2473
((I3
I4
tp2474
(I7
I6
tp2475
(I0
I2
tp2476
(I1
I1
tp2477
tp2478
aF-0.01
aa(lp2479
((I2
I4
tp2480
(I6
I6
tp2481
(I0
I2
tp2482
(I1
I1
tp2483
tp2484
aF-0.01
aa(lp2485
((I1
I4
tp2486
(I5
I6
tp2487
(I0
I2
tp2488
(I1
I1
tp2489
tp2490
aF-0.01
aa(lp2491
((I1
I4
tp2492
(I4
I6
tp2493
(I0
I2
tp2494
(I1
I1
tp2495
tp2496
aF0.0
aa(lp2497
((I4
I2
tp2498
(I5
I3
tp2499
(I0
I1
tp2500
(I1
I1
tp2501
tp2502
aF-0.01
aa(lp2503
((I4
I2
tp2504
(I4
I3
tp2505
(I0
I1
tp2506
(I1
I1
tp2507
tp2508
aF-0.01
aa(lp2509
((I3
I2
tp2510
(I3
I3
tp2511
(I0
I1
tp2512
(I1
I1
tp2513
tp2514
aF0.99
aa(lp2515
((I3
I1
tp2516
(I3
I2
tp2517
(I0
I2
tp2518
(I1
I1
tp2519
tp2520
aF-0.01
aa(lp2521
((I2
I1
tp2522
(I2
I2
tp2523
(I0
I2
tp2524
(I1
I1
tp2525
tp2526
aI1
aa(lp2527
((I2
I3
tp2528
(I8
I5
tp2529
(I0
I1
tp2530
(I1
I1
tp2531
tp2532
aF-0.01
aa(lp2533
((I2
I3
tp2534
(I8
I3
tp2535
(I0
I1
tp2536
(I1
I1
tp2537
tp2538
aF-0.01
aa(lp2539
((I1
I2
tp2540
(I7
I2
tp2541
(I0
I1
tp2542
(I1
I1
tp2543
tp2544
aF-0.01
aa(lp2545
((I1
I2
tp2546
(I7
I2
tp2547
(I1
I1
tp2548
(I1
I1
tp2549
tp2550
aF-0.01
aa(lp2551
((I1
I2
tp2552
(I9
I2
tp2553
(I0
I1
tp2554
(I1
I1
tp2555
tp2556
aF-0.01
aa(lp2557
((I1
I1
tp2558
(I9
I1
tp2559
(I0
I1
tp2560
(I1
I1
tp2561
tp2562
aF-0.01
aa(lp2563
((I1
I1
tp2564
(I8
I1
tp2565
(I0
I1
tp2566
(I1
I1
tp2567
tp2568
aI1
aa(lp2569
((I3
I4
tp2570
(I4
I4
tp2571
(I0
I1
tp2572
(I1
I1
tp2573
tp2574
aF-0.01
aa(lp2575
((I3
I3
tp2576
(I4
I3
tp2577
(I0
I1
tp2578
(I1
I1
tp2579
tp2580
aF-0.01
aa(lp2581
((I3
I2
tp2582
(I3
I2
tp2583
(I0
I1
tp2584
(I1
I1
tp2585
tp2586
aF0.99
aa(lp2587
((I4
I4
tp2588
(I5
I5
tp2589
(I0
I2
tp2590
(I1
I1
tp2591
tp2592
aF-0.01
aa(lp2593
((I4
I4
tp2594
(I4
I5
tp2595
(I0
I2
tp2596
(I1
I1
tp2597
tp2598
aF-0.01
aa(lp2599
((I3
I2
tp2600
(I3
I3
tp2601
(I0
I2
tp2602
(I1
I1
tp2603
tp2604
aF-0.01
aa(lp2605
((I3
I2
tp2606
(I3
I3
tp2607
(I0
I3
tp2608
(I1
I1
tp2609
tp2610
aF-0.01
aa(lp2611
((I3
I2
tp2612
(I3
I5
tp2613
(I0
I1
tp2614
(I1
I1
tp2615
tp2616
aF-0.01
aa(lp2617
((I2
I2
tp2618
(I2
I5
tp2619
(I0
I1
tp2620
(I1
I1
tp2621
tp2622
aF-0.01
aa(lp2623
((I2
I2
tp2624
(I2
I5
tp2625
(I0
I2
tp2626
(I1
I1
tp2627
tp2628
aF-0.01
aa(lp2629
((I1
I2
tp2630
(I1
I5
tp2631
(I0
I2
tp2632
(I1
I1
tp2633
tp2634
aF0.0
aa(lp2635
((I3
I3
tp2636
(I8
I5
tp2637
(I0
I1
tp2638
(I1
I1
tp2639
tp2640
aF-0.01
aa(lp2641
((I3
I3
tp2642
(I8
I4
tp2643
(I0
I1
tp2644
(I1
I1
tp2645
tp2646
aF-0.01
aa(lp2647
((I3
I2
tp2648
(I8
I3
tp2649
(I0
I1
tp2650
(I1
I1
tp2651
tp2652
aF-0.01
aa(lp2653
((I3
I1
tp2654
(I7
I2
tp2655
(I0
I1
tp2656
(I1
I1
tp2657
tp2658
aF0.99
aa(lp2659
((I2
I4
tp2660
(I6
I4
tp2661
(I1
I1
tp2662
(I1
I1
tp2663
tp2664
aF-0.01
aa(lp2665
((I2
I4
tp2666
(I8
I4
tp2667
(I0
I1
tp2668
(I1
I1
tp2669
tp2670
aF-0.01
aa(lp2671
((I2
I4
tp2672
(I8
I4
tp2673
(I0
I1
tp2674
(I2
I0
tp2675
tp2676
aF-0.01
aa(lp2677
((I2
I3
tp2678
(I8
I3
tp2679
(I0
I1
tp2680
(I2
I0
tp2681
tp2682
aF-0.01
aa(lp2683
((I2
I3
tp2684
(I7
I3
tp2685
(I0
I1
tp2686
(I2
I0
tp2687
tp2688
aF-0.01
aa(lp2689
((I2
I3
tp2690
(I6
I3
tp2691
(I0
I1
tp2692
(I2
I0
tp2693
tp2694
aF-0.01
aa(lp2695
((I2
I2
tp2696
(I6
I2
tp2697
(I0
I1
tp2698
(I2
I0
tp2699
tp2700
aF-0.01
aa(lp2701
((I2
I1
tp2702
(I6
I1
tp2703
(I0
I1
tp2704
(I2
I0
tp2705
tp2706
aF-0.01
aa(lp2707
((I2
I1
tp2708
(I5
I1
tp2709
(I0
I1
tp2710
(I2
I0
tp2711
tp2712
aF-0.01
aa(lp2713
((I2
I1
tp2714
(I4
I1
tp2715
(I0
I1
tp2716
(I2
I0
tp2717
tp2718
aF-0.01
aa(lp2719
((I2
I1
tp2720
(I3
I1
tp2721
(I0
I1
tp2722
(I2
I0
tp2723
tp2724
aF2.0
aa(lp2725
((I4
I4
tp2726
(I10
I6
tp2727
(I1
I2
tp2728
(I1
I1
tp2729
tp2730
aF-0.01
aa(lp2731
((I4
I4
tp2732
(I12
I6
tp2733
(I0
I2
tp2734
(I1
I1
tp2735
tp2736
aF-0.01
aa(lp2737
((I4
I4
tp2738
(I12
I6
tp2739
(I1
I2
tp2740
(I1
I1
tp2741
tp2742
aF-0.01
aa(lp2743
((I4
I4
tp2744
(I14
I6
tp2745
(I0
I2
tp2746
(I1
I1
tp2747
tp2748
aF-0.01
aa(lp2749
((I4
I3
tp2750
(I14
I5
tp2751
(I0
I2
tp2752
(I1
I1
tp2753
tp2754
aF-0.01
aa(lp2755
((I4
I2
tp2756
(I14
I4
tp2757
(I0
I2
tp2758
(I1
I1
tp2759
tp2760
aF-0.01
aa(lp2761
((I4
I1
tp2762
(I14
I3
tp2763
(I0
I2
tp2764
(I1
I1
tp2765
tp2766
aF-0.01
aa(lp2767
((I4
I1
tp2768
(I14
I3
tp2769
(I1
I2
tp2770
(I1
I1
tp2771
tp2772
aF-0.01
aa(lp2773
((I4
I1
tp2774
(I16
I3
tp2775
(I0
I2
tp2776
(I1
I1
tp2777
tp2778
aI1
aa(lp2779
((I3
I3
tp2780
(I5
I5
tp2781
(I0
I2
tp2782
(I1
I1
tp2783
tp2784
aF-0.01
aa(lp2785
((I3
I3
tp2786
(I4
I5
tp2787
(I0
I2
tp2788
(I1
I1
tp2789
tp2790
aF-0.01
aa(lp2791
((I3
I3
tp2792
(I4
I4
tp2793
(I0
I2
tp2794
(I1
I1
tp2795
tp2796
aF-0.01
aa(lp2797
((I3
I2
tp2798
(I4
I3
tp2799
(I0
I2
tp2800
(I1
I1
tp2801
tp2802
aF-0.01
aa(lp2803
((I2
I1
tp2804
(I3
I2
tp2805
(I0
I2
tp2806
(I1
I1
tp2807
tp2808
aF2.0
aa(lp2809
((I1
I1
tp2810
(I1
I1
tp2811
(I0
I1
tp2812
(I2
I0
tp2813
tp2814
aI1
aa(lp2815
((I3
I3
tp2816
(I6
I5
tp2817
(I0
I1
tp2818
(I1
I1
tp2819
tp2820
aF339.99
aa(lp2821
((I4
I1
tp2822
(I5
I2
tp2823
(I0
I1
tp2824
(I1
I1
tp2825
tp2826
aI1
aa(lp2827
((I4
I3
tp2828
(I8
I3
tp2829
(I1
I1
tp2830
(I1
I1
tp2831
tp2832
aF-0.01
aa(lp2833
((I4
I2
tp2834
(I9
I2
tp2835
(I0
I1
tp2836
(I1
I1
tp2837
tp2838
aF289.99
aa(lp2839
((I3
I4
tp2840
(I6
I4
tp2841
(I0
I1
tp2842
(I1
I1
tp2843
tp2844
aF-0.01
aa(lp2845
((I3
I3
tp2846
(I5
I3
tp2847
(I0
I1
tp2848
(I1
I1
tp2849
tp2850
aF0.0
aa(lp2851
((I3
I1
tp2852
(I6
I1
tp2853
(I1
I1
tp2854
(I1
I1
tp2855
tp2856
aF-0.01
aa(lp2857
((I3
I1
tp2858
(I8
I1
tp2859
(I0
I1
tp2860
(I1
I1
tp2861
tp2862
aI1
aa(lp2863
((I4
I3
tp2864
(I10
I5
tp2865
(I1
I1
tp2866
(I1
I1
tp2867
tp2868
aF-0.01
aa(lp2869
((I4
I3
tp2870
(I12
I5
tp2871
(I0
I1
tp2872
(I1
I1
tp2873
tp2874
aF-0.01
aa(lp2875
((I4
I3
tp2876
(I12
I4
tp2877
(I0
I1
tp2878
(I1
I1
tp2879
tp2880
aF-0.01
aa(lp2881
((I4
I2
tp2882
(I12
I3
tp2883
(I0
I1
tp2884
(I1
I1
tp2885
tp2886
aF-0.01
aa(lp2887
((I4
I2
tp2888
(I11
I3
tp2889
(I0
I1
tp2890
(I1
I1
tp2891
tp2892
aF-0.01
aa(lp2893
((I4
I2
tp2894
(I11
I2
tp2895
(I0
I1
tp2896
(I1
I1
tp2897
tp2898
aF-0.01
aa(lp2899
((I4
I2
tp2900
(I10
I2
tp2901
(I0
I1
tp2902
(I1
I1
tp2903
tp2904
aF0.99
aa(lp2905
((I3
I2
tp2906
(I8
I2
tp2907
(I1
I1
tp2908
(I1
I1
tp2909
tp2910
aF-0.01
aa(lp2911
((I3
I2
tp2912
(I10
I2
tp2913
(I0
I1
tp2914
(I1
I1
tp2915
tp2916
aF-0.01
aa(lp2917
((I3
I1
tp2918
(I10
I1
tp2919
(I0
I1
tp2920
(I1
I1
tp2921
tp2922
aI1
aa(lp2923
((I3
I4
tp2924
(I5
I6
tp2925
(I0
I2
tp2926
(I1
I1
tp2927
tp2928
aF-0.01
aa(lp2929
((I3
I4
tp2930
(I4
I6
tp2931
(I0
I2
tp2932
(I1
I1
tp2933
tp2934
aF-0.01
aa(lp2935
((I2
I3
tp2936
(I3
I5
tp2937
(I0
I2
tp2938
(I1
I1
tp2939
tp2940
aF-0.01
aa(lp2941
((I1
I3
tp2942
(I2
I5
tp2943
(I1
I2
tp2944
(I1
I1
tp2945
tp2946
aF-0.01
aa(lp2947
((I1
I3
tp2948
(I4
I5
tp2949
(I0
I2
tp2950
(I1
I1
tp2951
tp2952
aF-0.01
aa(lp2953
((I1
I2
tp2954
(I4
I4
tp2955
(I0
I2
tp2956
(I1
I1
tp2957
tp2958
aF-0.01
aa(lp2959
((I1
I2
tp2960
(I3
I4
tp2961
(I0
I2
tp2962
(I1
I1
tp2963
tp2964
aF-0.01
aa(lp2965
((I1
I1
tp2966
(I3
I3
tp2967
(I0
I2
tp2968
(I1
I1
tp2969
tp2970
aF-0.01
aa(lp2971
((I1
I1
tp2972
(I2
I3
tp2973
(I0
I2
tp2974
(I1
I1
tp2975
tp2976
aI1
aa(lp2977
((I3
I4
tp2978
(I7
I5
tp2979
(I1
I1
tp2980
(I1
I1
tp2981
tp2982
aF-0.01
aa(lp2983
((I3
I4
tp2984
(I9
I5
tp2985
(I0
I1
tp2986
(I1
I1
tp2987
tp2988
aF-0.01
aa(lp2989
((I3
I4
tp2990
(I7
I4
tp2991
(I1
I1
tp2992
(I1
I1
tp2993
tp2994
aF-0.01
aa(lp2995
((I3
I3
tp2996
(I8
I3
tp2997
(I1
I1
tp2998
(I1
I1
tp2999
tp3000
aF-0.01
aa(lp3001
((I3
I2
tp3002
(I7
I2
tp3003
(I1
I1
tp3004
(I1
I1
tp3005
tp3006
aF0.99
aa(lp3007
((I4
I4
tp3008
(I9
I6
tp3009
(I0
I2
tp3010
(I1
I1
tp3011
tp3012
aF-0.01
aa(lp3013
((I4
I4
tp3014
(I10
I6
tp3015
(I2
I2
tp3016
(I1
I1
tp3017
tp3018
aF-0.01
aa(lp3019
((I4
I3
tp3020
(I14
I5
tp3021
(I1
I2
tp3022
(I1
I1
tp3023
tp3024
aF-0.01
aa(lp3025
((I4
I3
tp3026
(I13
I5
tp3027
(I1
I2
tp3028
(I1
I1
tp3029
tp3030
aF-0.01
aa(lp3031
((I4
I3
tp3032
(I15
I5
tp3033
(I0
I2
tp3034
(I1
I1
tp3035
tp3036
aF-0.01
aa(lp3037
((I3
I3
tp3038
(I13
I5
tp3039
(I0
I2
tp3040
(I1
I1
tp3041
tp3042
aF-0.01
aa(lp3043
((I3
I2
tp3044
(I13
I4
tp3045
(I0
I2
tp3046
(I1
I1
tp3047
tp3048
aF-0.01
aa(lp3049
((I2
I2
tp3050
(I12
I4
tp3051
(I0
I2
tp3052
(I1
I1
tp3053
tp3054
aF-0.01
aa(lp3055
((I2
I2
tp3056
(I12
I3
tp3057
(I0
I2
tp3058
(I1
I1
tp3059
tp3060
aF-0.01
aa(lp3061
((I2
I1
tp3062
(I12
I2
tp3063
(I0
I2
tp3064
(I1
I1
tp3065
tp3066
aF-0.01
aa(lp3067
((I2
I1
tp3068
(I11
I2
tp3069
(I0
I2
tp3070
(I1
I1
tp3071
tp3072
aF-0.01
aa(lp3073
((I2
I1
tp3074
(I10
I2
tp3075
(I0
I2
tp3076
(I1
I1
tp3077
tp3078
aF-0.01
aa(lp3079
((I2
I1
tp3080
(I9
I2
tp3081
(I0
I2
tp3082
(I1
I1
tp3083
tp3084
aF-0.01
aa(lp3085
((I2
I1
tp3086
(I9
I2
tp3087
(I1
I2
tp3088
(I1
I1
tp3089
tp3090
aF-0.01
aa(lp3091
((I2
I1
tp3092
(I10
I2
tp3093
(I1
I2
tp3094
(I1
I1
tp3095
tp3096
aF2.0
aa(lp3097
((I3
I1
tp3098
(I4
I3
tp3099
(I0
I1
tp3100
(I1
I1
tp3101
tp3102
aF-0.01
aa(lp3103
((I3
I1
tp3104
(I3
I3
tp3105
(I0
I1
tp3106
(I1
I1
tp3107
tp3108
aF0.99
aa(lp3109
((I2
I1
tp3110
(I2
I2
tp3111
(I0
I1
tp3112
(I1
I1
tp3113
tp3114
aF-0.01
aa(lp3115
((I1
I1
tp3116
(I1
I2
tp3117
(I0
I1
tp3118
(I1
I1
tp3119
tp3120
aI-1
aa.