(lp0
(lp1
((I4
I4
tp2
(I6
I6
tp3
(I1
I1
tp4
(I1
I1
tp5
tp6
aF-0.01
aa(lp7
((I4
I4
tp8
(I8
I6
tp9
(I0
I1
tp10
(I1
I1
tp11
tp12
aF-0.01
aa(lp13
((I3
I4
tp14
(I7
I6
tp15
(I0
I1
tp16
(I1
I1
tp17
tp18
aF-0.01
aa(lp19
((I2
I4
tp20
(I6
I6
tp21
(I0
I1
tp22
(I1
I1
tp23
tp24
aF-0.01
aa(lp25
((I2
I4
tp26
(I6
I5
tp27
(I0
I1
tp28
(I1
I1
tp29
tp30
aF-0.01
aa(lp31
((I2
I3
tp32
(I6
I4
tp33
(I0
I1
tp34
(I1
I1
tp35
tp36
aF-0.01
aa(lp37
((I1
I3
tp38
(I5
I4
tp39
(I0
I1
tp40
(I1
I1
tp41
tp42
aF-0.01
aa(lp43
((I1
I3
tp44
(I5
I3
tp45
(I0
I1
tp46
(I1
I1
tp47
tp48
aI-1
aa(lp49
((I4
I4
tp50
(I8
I6
tp51
(I0
I2
tp52
(I1
I1
tp53
tp54
aF-0.01
aa(lp55
((I4
I4
tp56
(I7
I6
tp57
(I0
I2
tp58
(I1
I1
tp59
tp60
aF-0.01
aa(lp61
((I4
I4
tp62
(I6
I6
tp63
(I0
I2
tp64
(I1
I1
tp65
tp66
aF-0.01
aa(lp67
((I4
I4
tp68
(I6
I5
tp69
(I0
I2
tp70
(I1
I1
tp71
tp72
aF-0.01
aa(lp73
((I4
I4
tp74
(I6
I5
tp75
(I0
I3
tp76
(I1
I1
tp77
tp78
aF-0.01
aa(lp79
((I4
I4
tp80
(I6
I7
tp81
(I0
I2
tp82
(I1
I1
tp83
tp84
aF-0.01
aa(lp85
((I4
I3
tp86
(I6
I5
tp87
(I0
I2
tp88
(I1
I1
tp89
tp90
aF-0.01
aa(lp91
((I4
I2
tp92
(I6
I4
tp93
(I0
I2
tp94
(I1
I1
tp95
tp96
aF-0.01
aa(lp97
((I4
I1
tp98
(I6
I3
tp99
(I0
I2
tp100
(I1
I1
tp101
tp102
aF-0.01
aa(lp103
((I4
I1
tp104
(I5
I3
tp105
(I0
I2
tp106
(I1
I1
tp107
tp108
aI1
aa(lp109
((I4
I1
tp110
(I5
I3
tp111
(I0
I3
tp112
(I1
I1
tp113
tp114
aF-0.01
aa(lp115
((I4
I1
tp116
(I5
I5
tp117
(I0
I2
tp118
(I1
I1
tp119
tp120
aF-0.01
aa(lp121
((I4
I1
tp122
(I5
I4
tp123
(I0
I2
tp124
(I1
I1
tp125
tp126
aF-0.01
aa(lp127
((I4
I4
tp128
(I8
I5
tp129
(I0
I1
tp130
(I1
I1
tp131
tp132
aF-0.01
aa(lp133
((I4
I4
tp134
(I8
I5
tp135
(I0
I2
tp136
(I1
I1
tp137
tp138
aF-0.01
aa(lp139
((I4
I4
tp140
(I8
I4
tp141
(I0
I2
tp142
(I1
I1
tp143
tp144
aF-0.01
aa(lp145
((I3
I4
tp146
(I7
I4
tp147
(I0
I2
tp148
(I1
I1
tp149
tp150
aF-0.01
aa(lp151
((I3
I4
tp152
(I7
I4
tp153
(I1
I2
tp154
(I1
I1
tp155
tp156
aF-0.01
aa(lp157
((I3
I4
tp158
(I9
I4
tp159
(I0
I2
tp160
(I1
I1
tp161
tp162
aF-0.01
aa(lp163
((I3
I3
tp164
(I9
I3
tp165
(I0
I2
tp166
(I1
I1
tp167
tp168
aF-0.01
aa(lp169
((I2
I3
tp170
(I8
I3
tp171
(I0
I2
tp172
(I1
I1
tp173
tp174
aF-0.01
aa(lp175
((I1
I3
tp176
(I7
I3
tp177
(I0
I2
tp178
(I1
I1
tp179
tp180
aI-1
aa(lp181
((I4
I4
tp182
(I6
I5
tp183
(I1
I1
tp184
(I1
I1
tp185
tp186
aF-0.01
aa(lp187
((I4
I4
tp188
(I8
I4
tp189
(I0
I1
tp190
(I1
I1
tp191
tp192
aF-0.01
aa(lp193
((I4
I3
tp194
(I8
I3
tp195
(I0
I1
tp196
(I1
I1
tp197
tp198
aF-0.01
aa(lp199
((I4
I3
tp200
(I7
I3
tp201
(I0
I1
tp202
(I1
I1
tp203
tp204
aF-0.01
aa(lp205
((I4
I3
tp206
(I6
I3
tp207
(I0
I1
tp208
(I1
I1
tp209
tp210
aF-0.01
aa(lp211
((I4
I3
tp212
(I6
I3
tp213
(I1
I1
tp214
(I1
I1
tp215
tp216
aF-0.01
aa(lp217
((I3
I3
tp218
(I7
I3
tp219
(I0
I1
tp220
(I1
I1
tp221
tp222
aF-0.01
aa(lp223
((I3
I2
tp224
(I7
I2
tp225
(I0
I1
tp226
(I1
I1
tp227
tp228
aF-0.01
aa(lp229
((I2
I2
tp230
(I6
I2
tp231
(I0
I1
tp232
(I1
I1
tp233
tp234
aF-0.01
aa(lp235
((I2
I1
tp236
(I6
I1
tp237
(I0
I1
tp238
(I1
I1
tp239
tp240
aF-0.01
aa(lp241
((I2
I1
tp242
(I5
I1
tp243
(I0
I1
tp244
(I1
I1
tp245
tp246
aI1
aa(lp247
((I4
I4
tp248
(I7
I6
tp249
(I0
I1
tp250
(I1
I1
tp251
tp252
aF-0.01
aa(lp253
((I4
I4
tp254
(I6
I6
tp255
(I0
I1
tp256
(I1
I1
tp257
tp258
aF-0.01
aa(lp259
((I4
I3
tp260
(I6
I5
tp261
(I0
I1
tp262
(I1
I1
tp263
tp264
aF-0.01
aa(lp265
((I4
I2
tp266
(I6
I4
tp267
(I0
I1
tp268
(I1
I1
tp269
tp270
aF-0.01
aa(lp271
((I4
I1
tp272
(I6
I3
tp273
(I0
I1
tp274
(I1
I1
tp275
tp276
aI1
aa(lp277
((I4
I3
tp278
(I8
I5
tp279
(I0
I1
tp280
(I1
I1
tp281
tp282
aF-0.01
aa(lp283
((I4
I3
tp284
(I8
I4
tp285
(I0
I1
tp286
(I1
I1
tp287
tp288
aF-0.01
aa(lp289
((I4
I3
tp290
(I7
I4
tp291
(I0
I1
tp292
(I1
I1
tp293
tp294
aF-0.01
aa(lp295
((I4
I3
tp296
(I6
I4
tp297
(I0
I1
tp298
(I1
I1
tp299
tp300
aF-0.01
aa(lp301
((I4
I3
tp302
(I5
I3
tp303
(I0
I1
tp304
(I1
I1
tp305
tp306
aF-0.01
aa(lp307
((I4
I2
tp308
(I5
I2
tp309
(I0
I1
tp310
(I1
I1
tp311
tp312
aF-0.01
aa(lp313
((I4
I1
tp314
(I5
I1
tp315
(I0
I1
tp316
(I1
I1
tp317
tp318
aF-0.01
aa(lp319
((I4
I1
tp320
(I4
I1
tp321
(I0
I1
tp322
(I1
I1
tp323
tp324
aF-0.01
aa(lp325
((I3
I1
tp326
(I3
I1
tp327
(I0
I1
tp328
(I1
I1
tp329
tp330
aI1
aa(lp331
((I4
I4
tp332
(I6
I5
tp333
(I0
I1
tp334
(I1
I1
tp335
tp336
aF-0.01
aa(lp337
((I4
I4
tp338
(I5
I5
tp339
(I0
I1
tp340
(I1
I1
tp341
tp342
aF-0.01
aa(lp343
((I4
I4
tp344
(I4
I5
tp345
(I0
I1
tp346
(I1
I1
tp347
tp348
aF-0.01
aa(lp349
((I3
I4
tp350
(I3
I5
tp351
(I0
I1
tp352
(I1
I1
tp353
tp354
aF-0.01
aa(lp355
((I2
I4
tp356
(I2
I5
tp357
(I0
I1
tp358
(I1
I1
tp359
tp360
aF-0.01
aa(lp361
((I2
I4
tp362
(I2
I4
tp363
(I0
I1
tp364
(I1
I1
tp365
tp366
aF-0.01
aa(lp367
((I2
I3
tp368
(I2
I3
tp369
(I0
I1
tp370
(I1
I1
tp371
tp372
aF-0.01
aa(lp373
((I1
I3
tp374
(I1
I3
tp375
(I0
I1
tp376
(I1
I1
tp377
tp378
aI-1
aa(lp379
((I4
I2
tp380
(I8
I2
tp381
(I0
I1
tp382
(I1
I1
tp383
tp384
aF-0.01
aa(lp385
((I4
I1
tp386
(I8
I1
tp387
(I0
I1
tp388
(I1
I1
tp389
tp390
aF-0.01
aa(lp391
((I4
I1
tp392
(I7
I1
tp393
(I0
I1
tp394
(I1
I1
tp395
tp396
aI1
aa(lp397
((I4
I4
tp398
(I7
I5
tp399
(I0
I1
tp400
(I1
I1
tp401
tp402
aF-0.01
aa(lp403
((I4
I2
tp404
(I5
I2
tp405
(I1
I1
tp406
(I1
I1
tp407
tp408
aF-0.01
aa(lp409
((I4
I2
tp410
(I7
I2
tp411
(I0
I1
tp412
(I1
I1
tp413
tp414
aF-0.01
aa(lp415
((I4
I2
tp416
(I7
I2
tp417
(I1
I1
tp418
(I1
I1
tp419
tp420
aF-0.01
aa(lp421
((I4
I1
tp422
(I7
I1
tp423
(I1
I1
tp424
(I1
I1
tp425
tp426
aF-0.01
aa(lp427
((I4
I1
tp428
(I9
I1
tp429
(I0
I1
tp430
(I1
I1
tp431
tp432
aF-0.01
aa(lp433
((I3
I1
tp434
(I6
I1
tp435
(I0
I1
tp436
(I1
I1
tp437
tp438
aI1
aa(lp439
((I4
I4
tp440
(I7
I5
tp441
(I0
I2
tp442
(I1
I1
tp443
tp444
aF-0.01
aa(lp445
((I4
I3
tp446
(I7
I4
tp447
(I0
I2
tp448
(I1
I1
tp449
tp450
aF-0.01
aa(lp451
((I4
I3
tp452
(I6
I4
tp453
(I0
I2
tp454
(I1
I1
tp455
tp456
aF-0.01
aa(lp457
((I4
I3
tp458
(I6
I3
tp459
(I0
I2
tp460
(I1
I1
tp461
tp462
aF-0.01
aa(lp463
((I4
I3
tp464
(I6
I3
tp465
(I1
I2
tp466
(I1
I1
tp467
tp468
aF-0.01
aa(lp469
((I4
I3
tp470
(I5
I3
tp471
(I1
I2
tp472
(I1
I1
tp473
tp474
aF-0.01
aa(lp475
((I4
I3
tp476
(I7
I3
tp477
(I0
I2
tp478
(I1
I1
tp479
tp480
aF-0.01
aa(lp481
((I4
I2
tp482
(I7
I2
tp483
(I0
I2
tp484
(I1
I1
tp485
tp486
aF-0.01
aa(lp487
((I4
I2
tp488
(I6
I2
tp489
(I0
I2
tp490
(I1
I1
tp491
tp492
aF-0.01
aa(lp493
((I4
I1
tp494
(I6
I1
tp495
(I0
I2
tp496
(I1
I1
tp497
tp498
aI1
aa(lp499
((I4
I4
tp500
(I8
I6
tp501
(I1
I1
tp502
(I1
I1
tp503
tp504
aF-0.01
aa(lp505
((I4
I3
tp506
(I8
I5
tp507
(I1
I1
tp508
(I1
I1
tp509
tp510
aF-0.01
aa(lp511
((I4
I3
tp512
(I10
I5
tp513
(I0
I1
tp514
(I1
I1
tp515
tp516
aF-0.01
aa(lp517
((I4
I2
tp518
(I10
I4
tp519
(I0
I1
tp520
(I1
I1
tp521
tp522
aF-0.01
aa(lp523
((I4
I2
tp524
(I9
I4
tp525
(I0
I1
tp526
(I1
I1
tp527
tp528
aF-0.01
aa(lp529
((I4
I2
tp530
(I8
I4
tp531
(I0
I1
tp532
(I1
I1
tp533
tp534
aF-0.01
aa(lp535
((I4
I2
tp536
(I7
I4
tp537
(I0
I1
tp538
(I1
I1
tp539
tp540
aF-0.01
aa(lp541
((I3
I2
tp542
(I6
I4
tp543
(I0
I1
tp544
(I1
I1
tp545
tp546
aF-0.01
aa(lp547
((I3
I2
tp548
(I6
I3
tp549
(I0
I1
tp550
(I1
I1
tp551
tp552
aF-0.01
aa(lp553
((I2
I2
tp554
(I5
I3
tp555
(I0
I1
tp556
(I1
I1
tp557
tp558
aF-0.01
aa(lp559
((I2
I2
tp560
(I4
I3
tp561
(I0
I1
tp562
(I1
I1
tp563
tp564
aF-0.01
aa(lp565
((I1
I2
tp566
(I3
I3
tp567
(I0
I1
tp568
(I1
I1
tp569
tp570
aF-0.01
aa(lp571
((I1
I2
tp572
(I2
I3
tp573
(I0
I1
tp574
(I1
I1
tp575
tp576
aF-0.01
aa(lp577
((I1
I2
tp578
(I2
I2
tp579
(I0
I1
tp580
(I1
I1
tp581
tp582
aI-1
aa(lp583
((I4
I4
tp584
(I7
I4
tp585
(I0
I2
tp586
(I1
I1
tp587
tp588
aF-0.01
aa(lp589
((I4
I4
tp590
(I6
I4
tp591
(I0
I2
tp592
(I1
I1
tp593
tp594
aF-0.01
aa(lp595
((I4
I4
tp596
(I5
I4
tp597
(I0
I2
tp598
(I1
I1
tp599
tp600
aF-0.01
aa(lp601
((I4
I3
tp602
(I5
I3
tp603
(I0
I2
tp604
(I1
I1
tp605
tp606
aF-0.01
aa(lp607
((I4
I2
tp608
(I5
I2
tp609
(I0
I2
tp610
(I1
I1
tp611
tp612
aF-0.01
aa(lp613
((I4
I1
tp614
(I5
I1
tp615
(I0
I2
tp616
(I1
I1
tp617
tp618
aI1
aa(lp619
((I4
I3
tp620
(I5
I4
tp621
(I0
I1
tp622
(I1
I1
tp623
tp624
aF-0.01
aa(lp625
((I3
I3
tp626
(I4
I4
tp627
(I0
I1
tp628
(I1
I1
tp629
tp630
aF-0.01
aa(lp631
((I2
I3
tp632
(I3
I4
tp633
(I0
I1
tp634
(I1
I1
tp635
tp636
aF-0.01
aa(lp637
((I2
I2
tp638
(I3
I3
tp639
(I0
I1
tp640
(I1
I1
tp641
tp642
aF-0.01
aa(lp643
((I2
I1
tp644
(I3
I2
tp645
(I0
I1
tp646
(I1
I1
tp647
tp648
aF-0.01
aa(lp649
((I2
I1
tp650
(I3
I1
tp651
(I0
I1
tp652
(I1
I1
tp653
tp654
aF-0.01
aa(lp655
((I1
I1
tp656
(I2
I1
tp657
(I0
I1
tp658
(I1
I1
tp659
tp660
aF-0.01
aa(lp661
((I1
I1
tp662
(I2
I1
tp663
(I1
I1
tp664
(I1
I1
tp665
tp666
aF-0.01
aa(lp667
((I1
I1
tp668
(I4
I1
tp669
(I0
I1
tp670
(I1
I1
tp671
tp672
aI-1
aa.